target datalayout = "e-m:e-p270:32:32-p271:32:32-p272:64:64-i64:64-i128:128-f80:128-n8:16:32:64-S128"
target triple = "x86_64-pc-linux-gnu"

%struct.layout_type_name_t = type { i32, ptr }

@.str.4 = private unnamed_addr constant [3 x i8] c"%s\00", align 1
@.str.5 = private unnamed_addr constant [8 x i8] c"Unknown\00", align 1
@.str.6 = private unnamed_addr constant [4 x i8] c",%s\00", align 1
@.str.7 = private unnamed_addr constant [5 x i8] c"Pack\00", align 1
@.str.8 = private unnamed_addr constant [7 x i8] c"NoPack\00", align 1

; Function Attrs: nounwind uwtable
define dso_local ptr @slurm_step_layout_type_name(i32 noundef %0) #0 {
  %2 = alloca i32, align 4
  %3 = alloca ptr, align 8
  %4 = alloca ptr, align 8
  %5 = alloca i32, align 4
  %6 = alloca i32, align 4
  store i32 %0, ptr %2, align 4
  call void @llvm.lifetime.start.p0(i64 8, ptr %3) #7
  store ptr null, ptr %3, align 8
  call void @llvm.lifetime.start.p0(i64 8, ptr %4) #7
  store ptr null, ptr %4, align 8
  call void @llvm.lifetime.start.p0(i64 4, ptr %5) #7
  store i32 0, ptr %5, align 4
  br label %7

7:                                                ; preds = %31, %1
  %8 = load i32, ptr %5, align 4
  %9 = sext i32 %8 to i64
  %10 = getelementptr inbounds [29 x %struct.layout_type_name_t], ptr @layout_type_names, i64 0, i64 %9
  %11 = getelementptr inbounds nuw %struct.layout_type_name_t, ptr %10, i32 0, i32 0
  %12 = load i32, ptr %11, align 16
  %13 = icmp ne i32 %12, 0
  br i1 %13, label %15, label %14

14:                                               ; preds = %7
  store i32 2, ptr %6, align 4
  br label %34

15:                                               ; preds = %7
  %16 = load i32, ptr %5, align 4
  %17 = sext i32 %16 to i64
  %18 = getelementptr inbounds [29 x %struct.layout_type_name_t], ptr @layout_type_names, i64 0, i64 %17
  %19 = getelementptr inbounds nuw %struct.layout_type_name_t, ptr %18, i32 0, i32 0
  %20 = load i32, ptr %19, align 16
  %21 = load i32, ptr %2, align 4
  %22 = and i32 %21, 65535
  %23 = icmp eq i32 %20, %22
  br i1 %23, label %24, label %30

24:                                               ; preds = %15
  %25 = load i32, ptr %5, align 4
  %26 = sext i32 %25 to i64
  %27 = getelementptr inbounds [29 x %struct.layout_type_name_t], ptr @layout_type_names, i64 0, i64 %26
  %28 = getelementptr inbounds nuw %struct.layout_type_name_t, ptr %27, i32 0, i32 1
  %29 = load ptr, ptr %28, align 8
  call void (ptr, ptr, ptr, ...) @_xstrfmtcatat(ptr noundef %3, ptr noundef %4, ptr noundef @.str.4, ptr noundef %29)
  store i32 2, ptr %6, align 4
  br label %34

30:                                               ; preds = %15
  br label %31

31:                                               ; preds = %30
  %32 = load i32, ptr %5, align 4
  %33 = add nsw i32 %32, 1
  store i32 %33, ptr %5, align 4
  br label %7, !llvm.loop !22

34:                                               ; preds = %24, %14
  call void @llvm.lifetime.end.p0(i64 4, ptr %5) #7
  br label %35

35:                                               ; preds = %34
  %36 = load ptr, ptr %3, align 8
  %37 = icmp ne ptr %36, null
  br i1 %37, label %39, label %38

38:                                               ; preds = %35
  call void (ptr, ptr, ptr, ...) @_xstrfmtcatat(ptr noundef %3, ptr noundef %4, ptr noundef @.str.4, ptr noundef @.str.5)
  br label %39

39:                                               ; preds = %38, %35
  %40 = load i32, ptr %2, align 4
  %41 = and i32 %40, 8388608
  %42 = icmp ne i32 %41, 0
  br i1 %42, label %43, label %44

43:                                               ; preds = %39
  call void (ptr, ptr, ptr, ...) @_xstrfmtcatat(ptr noundef %3, ptr noundef %4, ptr noundef @.str.6, ptr noundef @.str.7)
  br label %44

44:                                               ; preds = %43, %39
  %45 = load i32, ptr %2, align 4
  %46 = and i32 %45, 4194304
  %47 = icmp ne i32 %46, 0
  br i1 %47, label %48, label %49

48:                                               ; preds = %44
  call void (ptr, ptr, ptr, ...) @_xstrfmtcatat(ptr noundef %3, ptr noundef %4, ptr noundef @.str.6, ptr noundef @.str.8)
  br label %49

49:                                               ; preds = %48, %44
  %50 = load ptr, ptr %3, align 8
  store i32 1, ptr %6, align 4
  call void @llvm.lifetime.end.p0(i64 8, ptr %4) #7
  call void @llvm.lifetime.end.p0(i64 8, ptr %3) #7
  ret ptr %50
}